target datalayout = "e-m:e-p270:32:32-p271:32:32-p272:64:64-i64:64-i128:128-f80:128-n8:16:32:64-S128"
target triple = "x86_64-pc-linux-gnu"

%struct.expert_field = type { i32, i32 }
%struct._asn1_ctx_t = type { i32, i32, i8, ptr, ptr, ptr, ptr, ptr, %struct.anon, %struct.anon.2, %struct.anon.3, ptr }
%struct.anon = type { i32, i8, i8, i8, ptr, ptr, i32, i32, ptr, ptr, ptr, %union.anon }
%union.anon = type { %struct.anon.0 }
%struct.anon.0 = type { ptr }
%struct.anon.2 = type { ptr, ptr, ptr }
%struct.anon.3 = type { i32, i8, ptr, i32, i32, ptr, ptr, ptr, %union.anon.4 }
%union.anon.4 = type { %struct.anon.5 }
%struct.anon.5 = type { ptr }
%struct._packet_info = type { ptr, ptr, i32, i32, %struct.nstime_t, %struct.nstime_t, %struct.nstime_t, i8, ptr, ptr, ptr, ptr, %struct._address, %struct._address, %struct._address, %struct._address, %struct._address, %struct._address, i32, ptr, i8, [3 x i8], %struct.anon.7, i32, i32, i32, i32, ptr, i8, ptr, ptr, i16, i16, i32, i32, i16, i32, i32, ptr, ptr, ptr, i8, i8, i16, i16, i16, i32, i16, i16, ptr, ptr, ptr, ptr, ptr, i32, i32 }
%struct.nstime_t = type { i64, i32 }
%struct._address = type { i32, i32, ptr, ptr }
%struct.anon.7 = type { i8, [3 x i8] }

@ei_mms_mal_timeofday_encoding = internal global %struct.expert_field zeroinitializer, align 4
@.str.1543 = private unnamed_addr constant [69 x i8] c"BER Error: malformed TimeOfDay encoding, length must be 4 or 6 bytes\00", align 1
@.str.1544 = private unnamed_addr constant [5 x i8] c"????\00", align 1

; Function Attrs: null_pointer_is_valid sspstrong uwtable
define internal i32 @dissect_mms_TimeOfDay(i1 noundef zeroext %0, ptr noundef %1, i32 noundef %2, ptr noundef %3, ptr noundef %4, i32 noundef %5) #0 {
  %7 = alloca i32, align 4
  %8 = alloca i8, align 1
  %9 = alloca ptr, align 8
  %10 = alloca i32, align 4
  %11 = alloca ptr, align 8
  %12 = alloca ptr, align 8
  %13 = alloca i32, align 4
  %14 = alloca i32, align 4
  %15 = alloca i32, align 4
  %16 = alloca i16, align 2
  %17 = alloca ptr, align 8
  %18 = alloca %struct.nstime_t, align 8
  %19 = alloca i32, align 4
  %20 = zext i1 %0 to i8
  store i8 %20, ptr %8, align 1
  store ptr %1, ptr %9, align 8
  store i32 %2, ptr %10, align 4
  store ptr %3, ptr %11, align 8
  store ptr %4, ptr %12, align 8
  store i32 %5, ptr %13, align 4
  call void @llvm.lifetime.start.p0(i64 4, ptr %14) #8
  call void @llvm.lifetime.start.p0(i64 4, ptr %15) #8
  call void @llvm.lifetime.start.p0(i64 2, ptr %16) #8
  call void @llvm.lifetime.start.p0(i64 8, ptr %17) #8
  call void @llvm.lifetime.start.p0(i64 16, ptr %18) #8
  %21 = load ptr, ptr %9, align 8
  %22 = load i32, ptr %10, align 4
  %23 = call i32 @tvb_reported_length_remaining(ptr noundef %21, i32 noundef %22)
  store i32 %23, ptr %14, align 4
  %24 = load i32, ptr %14, align 4
  %25 = icmp eq i32 %24, 4
  br i1 %25, label %26, label %49

26:                                               ; preds = %6
  %27 = load ptr, ptr %9, align 8
  %28 = load i32, ptr %10, align 4
  %29 = call i32 @tvb_get_ntohl(ptr noundef %27, i32 noundef %28)
  store i32 %29, ptr %15, align 4
  %30 = load ptr, ptr %11, align 8
  %31 = getelementptr inbounds nuw %struct._asn1_ctx_t, ptr %30, i32 0, i32 3
  %32 = load ptr, ptr %31, align 8
  %33 = getelementptr inbounds nuw %struct._packet_info, ptr %32, i32 0, i32 51
  %34 = load ptr, ptr %33, align 8
  %35 = load i32, ptr %15, align 4
  %36 = call ptr @signed_time_msecs_to_str(ptr noundef %34, i32 noundef %35)
  store ptr %36, ptr %17, align 8
  %37 = load i32, ptr %13, align 4
  %38 = icmp sgt i32 %37, 0
  br i1 %38, label %39, label %47

39:                                               ; preds = %26
  %40 = load ptr, ptr %12, align 8
  %41 = load i32, ptr %13, align 4
  %42 = load ptr, ptr %9, align 8
  %43 = load i32, ptr %10, align 4
  %44 = load i32, ptr %14, align 4
  %45 = load ptr, ptr %17, align 8
  %46 = call ptr @proto_tree_add_string(ptr noundef %40, i32 noundef %41, ptr noundef %42, i32 noundef %43, i32 noundef %44, ptr noundef %45)
  br label %47

47:                                               ; preds = %39, %26
  %48 = load i32, ptr %10, align 4
  store i32 %48, ptr %7, align 4
  store i32 1, ptr %19, align 4
  br label %111

49:                                               ; preds = %6
  %50 = load i32, ptr %14, align 4
  %51 = icmp eq i32 %50, 6
  br i1 %51, label %52, label %91

52:                                               ; preds = %49
  %53 = load ptr, ptr %9, align 8
  %54 = load i32, ptr %10, align 4
  %55 = call i32 @tvb_get_ntohl(ptr noundef %53, i32 noundef %54)
  store i32 %55, ptr %15, align 4
  %56 = load ptr, ptr %9, align 8
  %57 = load i32, ptr %10, align 4
  %58 = add i32 %57, 4
  %59 = call zeroext i16 @tvb_get_ntohs(ptr noundef %56, i32 noundef %58)
  store i16 %59, ptr %16, align 2
  %60 = load i16, ptr %16, align 2
  %61 = zext i16 %60 to i32
  %62 = add i32 %61, 5113
  %63 = mul i32 %62, 86400
  %64 = load i32, ptr %15, align 4
  %65 = udiv i32 %64, 1000
  %66 = add i32 %63, %65
  %67 = zext i32 %66 to i64
  %68 = getelementptr inbounds nuw %struct.nstime_t, ptr %18, i32 0, i32 0
  store i64 %67, ptr %68, align 8
  %69 = load i32, ptr %15, align 4
  %70 = urem i32 %69, 1000
  %71 = mul i32 %70, 1000000
  %72 = getelementptr inbounds nuw %struct.nstime_t, ptr %18, i32 0, i32 1
  store i32 %71, ptr %72, align 8
  %73 = load ptr, ptr %11, align 8
  %74 = getelementptr inbounds nuw %struct._asn1_ctx_t, ptr %73, i32 0, i32 3
  %75 = load ptr, ptr %74, align 8
  %76 = getelementptr inbounds nuw %struct._packet_info, ptr %75, i32 0, i32 51
  %77 = load ptr, ptr %76, align 8
  %78 = call ptr @abs_time_to_str_ex(ptr noundef %77, ptr noundef %18, i32 noundef 19, i32 noundef 1)
  store ptr %78, ptr %17, align 8
  %79 = load i32, ptr %13, align 4
  %80 = icmp sgt i32 %79, 0
  br i1 %80, label %81, label %89

81:                                               ; preds = %52
  %82 = load ptr, ptr %12, align 8
  %83 = load i32, ptr %13, align 4
  %84 = load ptr, ptr %9, align 8
  %85 = load i32, ptr %10, align 4
  %86 = load i32, ptr %14, align 4
  %87 = load ptr, ptr %17, align 8
  %88 = call ptr @proto_tree_add_string(ptr noundef %82, i32 noundef %83, ptr noundef %84, i32 noundef %85, i32 noundef %86, ptr noundef %87)
  br label %89

89:                                               ; preds = %81, %52
  %90 = load i32, ptr %10, align 4
  store i32 %90, ptr %7, align 4
  store i32 1, ptr %19, align 4
  br label %111

91:                                               ; preds = %49
  %92 = load ptr, ptr %12, align 8
  %93 = load ptr, ptr %11, align 8
  %94 = getelementptr inbounds nuw %struct._asn1_ctx_t, ptr %93, i32 0, i32 3
  %95 = load ptr, ptr %94, align 8
  %96 = load ptr, ptr %9, align 8
  %97 = load i32, ptr %10, align 4
  %98 = load i32, ptr %14, align 4
  %99 = call ptr (ptr, ptr, ptr, ptr, i32, i32, ptr, ...) @proto_tree_add_expert_format(ptr noundef %92, ptr noundef %95, ptr noundef @ei_mms_mal_timeofday_encoding, ptr noundef %96, i32 noundef %97, i32 noundef %98, ptr noundef @.str.1543)
  %100 = load i32, ptr %13, align 4
  %101 = icmp sgt i32 %100, 0
  br i1 %101, label %102, label %109

102:                                              ; preds = %91
  %103 = load ptr, ptr %12, align 8
  %104 = load i32, ptr %13, align 4
  %105 = load ptr, ptr %9, align 8
  %106 = load i32, ptr %10, align 4
  %107 = load i32, ptr %14, align 4
  %108 = call ptr @proto_tree_add_string(ptr noundef %103, i32 noundef %104, ptr noundef %105, i32 noundef %106, i32 noundef %107, ptr noundef @.str.1544)
  br label %109

109:                                              ; preds = %102, %91
  %110 = load i32, ptr %10, align 4
  store i32 %110, ptr %7, align 4
  store i32 1, ptr %19, align 4
  br label %111

111:                                              ; preds = %109, %89, %47
  call void @llvm.lifetime.end.p0(i64 16, ptr %18) #8
  call void @llvm.lifetime.end.p0(i64 8, ptr %17) #8
  call void @llvm.lifetime.end.p0(i64 2, ptr %16) #8
  call void @llvm.lifetime.end.p0(i64 4, ptr %15) #8
  call void @llvm.lifetime.end.p0(i64 4, ptr %14) #8
  %112 = load i32, ptr %7, align 4
  ret i32 %112
}