; Function Attrs: null_pointer_is_valid sspstrong uwtable
define internal noundef i32 @dissect_mms_TimeOfDay(i1 zeroext %0, ptr noundef %1, i32 noundef returned %2, ptr noundef readonly captures(none) %3, ptr noundef %4, i32 noundef %5) #0 {
  %7 = alloca %struct.nstime_t, align 8
  call void @llvm.lifetime.start.p0(i64 16, ptr nonnull %7) #8
  %8 = tail call i32 @tvb_reported_length_remaining(ptr noundef %1, i32 noundef %2)
  switch i32 %8, label %40 [
    i32 4, label %9
    i32 6, label %19
  ]

9:                                                ; preds = %6
  %10 = tail call i32 @tvb_get_ntohl(ptr noundef %1, i32 noundef %2)
  %11 = getelementptr inbounds nuw i8, ptr %3, i64 16
  %12 = load ptr, ptr %11, align 8
  %13 = getelementptr inbounds nuw i8, ptr %12, i64 408
  %14 = load ptr, ptr %13, align 8
  %15 = tail call ptr @signed_time_msecs_to_str(ptr noundef %14, i32 noundef %10)
  %16 = icmp sgt i32 %5, 0
  br i1 %16, label %17, label %47

17:                                               ; preds = %9
  %18 = tail call ptr @proto_tree_add_string(ptr noundef %4, i32 noundef %5, ptr noundef %1, i32 noundef %2, i32 noundef 4, ptr noundef %15)
  br label %47

19:                                               ; preds = %6
  %20 = tail call i32 @tvb_get_ntohl(ptr noundef %1, i32 noundef %2)
  %21 = add i32 %2, 4
  %22 = tail call zeroext i16 @tvb_get_ntohs(ptr noundef %1, i32 noundef %21)
  %23 = zext i16 %22 to i32
  %24 = mul i32 %23, 86400
  %25 = udiv i32 %20, 1000
  %26 = add nuw nsw i32 %25, 441763200
  %27 = add i32 %26, %24
  %28 = zext i32 %27 to i64
  store i64 %28, ptr %7, align 8
  %29 = urem i32 %20, 1000
  %30 = mul nuw nsw i32 %29, 1000000
  %31 = getelementptr inbounds nuw i8, ptr %7, i64 8
  store i32 %30, ptr %31, align 8
  %32 = getelementptr inbounds nuw i8, ptr %3, i64 16
  %33 = load ptr, ptr %32, align 8
  %34 = getelementptr inbounds nuw i8, ptr %33, i64 408
  %35 = load ptr, ptr %34, align 8
  %36 = call ptr @abs_time_to_str_ex(ptr noundef %35, ptr noundef nonnull %7, i32 noundef 19, i32 noundef 1)
  %37 = icmp sgt i32 %5, 0
  br i1 %37, label %38, label %47

38:                                               ; preds = %19
  %39 = call ptr @proto_tree_add_string(ptr noundef %4, i32 noundef %5, ptr noundef %1, i32 noundef %2, i32 noundef 6, ptr noundef %36)
  br label %47

40:                                               ; preds = %6
  %41 = getelementptr inbounds nuw i8, ptr %3, i64 16
  %42 = load ptr, ptr %41, align 8
  %43 = tail call ptr (ptr, ptr, ptr, ptr, i32, i32, ptr, ...) @proto_tree_add_expert_format(ptr noundef %4, ptr noundef %42, ptr noundef nonnull @ei_mms_mal_timeofday_encoding, ptr noundef %1, i32 noundef %2, i32 noundef %8, ptr noundef nonnull @.str.1543)
  %44 = icmp sgt i32 %5, 0
  br i1 %44, label %45, label %47

45:                                               ; preds = %40
  %46 = tail call ptr @proto_tree_add_string(ptr noundef %4, i32 noundef %5, ptr noundef %1, i32 noundef %2, i32 noundef %8, ptr noundef nonnull @.str.1544)
  br label %47

47:                                               ; preds = %40, %45, %19, %38, %9, %17
  call void @llvm.lifetime.end.p0(i64 16, ptr nonnull %7) #8
  ret i32 %2
}